target datalayout = "e-m:e-p270:32:32-p271:32:32-p272:64:64-i64:64-i128:128-f80:128-n8:16:32:64-S128"
target triple = "x86_64-unknown-linux-gnu"

%"class.proxygen::HPACKContext" = type <{ %"class.proxygen::HeaderTable", i32, [4 x i8] }>
%"class.proxygen::HeaderTable" = type { ptr, i32, i32, %"class.std::vector", i32, i32, i32, i8, %"class.folly::F14FastMap" }
%"class.std::vector" = type { %"struct.std::_Vector_base" }
%"struct.std::_Vector_base" = type { %"struct.std::_Vector_base<proxygen::HPACKHeader, std::allocator<proxygen::HPACKHeader>>::_Vector_impl" }
%"struct.std::_Vector_base<proxygen::HPACKHeader, std::allocator<proxygen::HPACKHeader>>::_Vector_impl" = type { %"struct.std::_Vector_base<proxygen::HPACKHeader, std::allocator<proxygen::HPACKHeader>>::_Vector_impl_data" }
%"struct.std::_Vector_base<proxygen::HPACKHeader, std::allocator<proxygen::HPACKHeader>>::_Vector_impl_data" = type { ptr, ptr, ptr }
%"class.folly::F14FastMap" = type { %"class.folly::f14::detail::F14VectorMapImpl" }
%"class.folly::f14::detail::F14VectorMapImpl" = type { %"class.folly::f14::detail::F14BasicMap" }
%"class.folly::f14::detail::F14BasicMap" = type { %"class.folly::f14::detail::F14Table" }
%"class.folly::f14::detail::F14Table" = type { %"class.folly::f14::detail::VectorContainerPolicy", ptr, %"struct.folly::f14::detail::SizeAndChunkShiftAndPackedBegin" }
%"class.folly::f14::detail::VectorContainerPolicy" = type { ptr }
%"struct.folly::f14::detail::SizeAndChunkShiftAndPackedBegin" = type { %"struct.folly::f14::detail::PackedSizeAndChunkShift" }
%"struct.folly::f14::detail::PackedSizeAndChunkShift" = type { i64 }

; Function Attrs: mustprogress nounwind uwtable
define linkonce_odr noundef i32 @_ZNK8proxygen11HeaderTable4sizeEv(ptr noundef nonnull align 8 dereferenceable(80) %this) #5 comdat align 2 {
entry:
  %this.addr = alloca ptr, align 8
  store ptr %this, ptr %this.addr, align 8
  %this1 = load ptr, ptr %this.addr, align 8
  %size_ = getelementptr inbounds %"class.proxygen::HeaderTable", ptr %this1, i32 0, i32 4
  %0 = load i32, ptr %size_, align 8
  ret i32 %0
}

; Function Attrs: mustprogress uwtable
define linkonce_odr noundef i32 @_ZNK8proxygen12HPACKContext20globalToDynamicIndexEj(ptr noundef nonnull align 8 dereferenceable(84) %this, i32 noundef %index) #4 comdat align 2 {
entry:
  %this.addr = alloca ptr, align 8
  %index.addr = alloca i32, align 4
  store ptr %this, ptr %this.addr, align 8
  store i32 %index, ptr %index.addr, align 4
  %this1 = load ptr, ptr %this.addr, align 8
  %0 = load i32, ptr %index.addr, align 4
  %call = call noundef nonnull align 8 dereferenceable(80) ptr @_ZNK8proxygen12HPACKContext14getStaticTableEv(ptr noundef nonnull align 8 dereferenceable(84) %this1)
  %call2 = call noundef i32 @_ZNK8proxygen11HeaderTable4sizeEv(ptr noundef nonnull align 8 dereferenceable(80) %call)
  %sub = sub i32 %0, %call2
  ret i32 %sub
}

; Function Attrs: mustprogress nounwind uwtable
define linkonce_odr noundef i32 @_ZNK8proxygen12HPACKContext19globalToStaticIndexEj(ptr noundef nonnull align 8 dereferenceable(84) %this, i32 noundef %index) #5 comdat align 2 {
entry:
  %this.addr = alloca ptr, align 8
  %index.addr = alloca i32, align 4
  store ptr %this, ptr %this.addr, align 8
  store i32 %index, ptr %index.addr, align 4
  %0 = load i32, ptr %index.addr, align 4
  ret i32 %0
}

; Function Attrs: mustprogress uwtable
define linkonce_odr noundef nonnull align 8 dereferenceable(80) ptr @_ZNK8proxygen12HPACKContext14getStaticTableEv(ptr noundef nonnull align 8 dereferenceable(84) %this) #4 comdat align 2 {
entry:
  %this.addr = alloca ptr, align 8
  store ptr %this, ptr %this.addr, align 8
  %call = call noundef nonnull align 8 dereferenceable(80) ptr @_ZN8proxygen17StaticHeaderTable3getEv()
  ret ptr %call
}

; Function Attrs: mustprogress uwtable
define noundef zeroext i1 @_ZNK8proxygen12HPACKContext8isStaticEj(ptr noundef nonnull align 8 dereferenceable(84) %this, i32 noundef %index) #4 align 2 {
entry:
  %this.addr = alloca ptr, align 8
  %index.addr = alloca i32, align 4
  store ptr %this, ptr %this.addr, align 8
  store i32 %index, ptr %index.addr, align 4
  %this1 = load ptr, ptr %this.addr, align 8
  %0 = load i32, ptr %index.addr, align 4
  %call = call noundef nonnull align 8 dereferenceable(80) ptr @_ZNK8proxygen12HPACKContext14getStaticTableEv(ptr noundef nonnull align 8 dereferenceable(84) %this1)
  %call2 = call noundef i32 @_ZNK8proxygen11HeaderTable4sizeEv(ptr noundef nonnull align 8 dereferenceable(80) %call)
  %cmp = icmp ule i32 %0, %call2
  ret i1 %cmp
}

; Function Attrs: mustprogress uwtable
define noundef nonnull align 8 dereferenceable(32) ptr @_ZN8proxygen12HPACKContext9getHeaderEj(ptr noundef nonnull align 8 dereferenceable(84) %this, i32 noundef %index) #4 align 2 {
entry:
  %retval = alloca ptr, align 8
  %this.addr = alloca ptr, align 8
  %index.addr = alloca i32, align 4
  store ptr %this, ptr %this.addr, align 8
  store i32 %index, ptr %index.addr, align 4
  %this1 = load ptr, ptr %this.addr, align 8
  %0 = load i32, ptr %index.addr, align 4
  %call = call noundef zeroext i1 @_ZNK8proxygen12HPACKContext8isStaticEj(ptr noundef nonnull align 8 dereferenceable(84) %this1, i32 noundef %0)
  br i1 %call, label %if.then, label %if.end

if.then:                                          ; preds = %entry
  %staticRefs_ = getelementptr inbounds %"class.proxygen::HPACKContext", ptr %this1, i32 0, i32 1
  %1 = load i32, ptr %staticRefs_, align 8
  %inc = add i32 %1, 1
  store i32 %inc, ptr %staticRefs_, align 8
  %call2 = call noundef nonnull align 8 dereferenceable(80) ptr @_ZNK8proxygen12HPACKContext14getStaticTableEv(ptr noundef nonnull align 8 dereferenceable(84) %this1)
  %2 = load i32, ptr %index.addr, align 4
  %call3 = call noundef i32 @_ZNK8proxygen12HPACKContext19globalToStaticIndexEj(ptr noundef nonnull align 8 dereferenceable(84) %this1, i32 noundef %2)
  %call4 = call noundef nonnull align 8 dereferenceable(32) ptr @_ZNK8proxygen11HeaderTable9getHeaderEj(ptr noundef nonnull align 8 dereferenceable(80) %call2, i32 noundef %call3)
  store ptr %call4, ptr %retval, align 8
  br label %return

if.end:                                           ; preds = %entry
  %table_ = getelementptr inbounds %"class.proxygen::HPACKContext", ptr %this1, i32 0, i32 0
  %3 = load i32, ptr %index.addr, align 4
  %call5 = call noundef i32 @_ZNK8proxygen12HPACKContext20globalToDynamicIndexEj(ptr noundef nonnull align 8 dereferenceable(84) %this1, i32 noundef %3)
  %call6 = call noundef nonnull align 8 dereferenceable(32) ptr @_ZNK8proxygen11HeaderTable9getHeaderEj(ptr noundef nonnull align 8 dereferenceable(80) %table_, i32 noundef %call5)
  store ptr %call6, ptr %retval, align 8
  br label %return

return:                                           ; preds = %if.end, %if.then
  %4 = load ptr, ptr %retval, align 8
  ret ptr %4
}