; Function Attrs: mustprogress uwtable
define noundef nonnull align 8 dereferenceable(32) ptr @_ZN8proxygen12HPACKContext9getHeaderEj(ptr noundef nonnull align 8 dereferenceable(84) %this, i32 noundef %index) local_unnamed_addr #3 align 2 {
entry:
  %call.i.i = tail call noundef nonnull align 8 dereferenceable(80) ptr @_ZN8proxygen17StaticHeaderTable3getEv()
  %size_.i.i = getelementptr inbounds i8, ptr %call.i.i, i64 40
  %0 = load i32, ptr %size_.i.i, align 8
  %cmp.i.not = icmp ult i32 %0, %index
  br i1 %cmp.i.not, label %if.end, label %if.then

if.then:                                          ; preds = %entry
  %staticRefs_ = getelementptr inbounds i8, ptr %this, i64 80
  %1 = load i32, ptr %staticRefs_, align 8
  %inc = add i32 %1, 1
  store i32 %inc, ptr %staticRefs_, align 8
  %call.i = tail call noundef nonnull align 8 dereferenceable(80) ptr @_ZN8proxygen17StaticHeaderTable3getEv()
  %call4 = tail call noundef nonnull align 8 dereferenceable(32) ptr @_ZNK8proxygen11HeaderTable9getHeaderEj(ptr noundef nonnull align 8 dereferenceable(80) %call.i, i32 noundef %index)
  br label %return

if.end:                                           ; preds = %entry
  %call.i.i3 = tail call noundef nonnull align 8 dereferenceable(80) ptr @_ZN8proxygen17StaticHeaderTable3getEv()
  %size_.i.i4 = getelementptr inbounds i8, ptr %call.i.i3, i64 40
  %2 = load i32, ptr %size_.i.i4, align 8
  %sub.i = sub i32 %index, %2
  %call6 = tail call noundef nonnull align 8 dereferenceable(32) ptr @_ZNK8proxygen11HeaderTable9getHeaderEj(ptr noundef nonnull align 8 dereferenceable(80) %this, i32 noundef %sub.i)
  br label %return

return:                                           ; preds = %if.end, %if.then
  %retval.0 = phi ptr [ %call4, %if.then ], [ %call6, %if.end ]
  ret ptr %retval.0
}